ARM GAS  C:\Users\NICOLA~1\AppData\Local\Temp\ccfEzMVY.s 			page 1


   1              		.syntax unified
   2              		.cpu cortex-m3
   3              		.fpu softvfp
   4              		.eabi_attribute 20, 1
   5              		.eabi_attribute 21, 1
   6              		.eabi_attribute 23, 3
   7              		.eabi_attribute 24, 1
   8              		.eabi_attribute 25, 1
   9              		.eabi_attribute 26, 1
  10              		.eabi_attribute 30, 1
  11              		.eabi_attribute 34, 1
  12              		.eabi_attribute 18, 4
  13              		.thumb
  14              		.syntax unified
  15              		.file	"main.c"
  16              		.text
  17              	.Ltext0:
  18              		.cfi_sections	.debug_frame
  19              		.section	.text.Inte,"ax",%progbits
  20              		.align	2
  21              		.global	Inte
  22              		.thumb
  23              		.thumb_func
  24              		.type	Inte, %function
  25              	Inte:
  26              	.LFB63:
  27              		.file 1 "main.c"
   1:main.c        **** /* ========================================
   2:main.c        ****  *
   3:main.c        ****  * Copyright YOUR COMPANY, THE YEAR
   4:main.c        ****  * All Rights Reserved
   5:main.c        ****  * UNPUBLISHED, LICENSED SOFTWARE.
   6:main.c        ****  *
   7:main.c        ****  * CONFIDENTIAL AND PROPRIETARY INFORMATION
   8:main.c        ****  * WHICH IS THE PROPERTY OF your company.
   9:main.c        ****  *
  10:main.c        ****  * ========================================
  11:main.c        **** */
  12:main.c        **** #include "project.h"
  13:main.c        **** 
  14:main.c        **** 
  15:main.c        **** 
  16:main.c        **** extern uint8 const CYCODE LCD_customFonts[]; //Se carga los caracteres especiales
  17:main.c        **** volatile uint8 de=0;
  18:main.c        **** uint8 temp=0;
  19:main.c        **** uint16 d,u,f,k;
  20:main.c        **** 
  21:main.c        **** CY_ISR(Inte){
  28              		.loc 1 21 0
  29              		.cfi_startproc
  30              		@ args = 0, pretend = 0, frame = 0
  31              		@ frame_needed = 0, uses_anonymous_args = 0
  32 0000 08B5     		push	{r3, lr}
  33              		.cfi_def_cfa_offset 8
  34              		.cfi_offset 3, -8
  35              		.cfi_offset 14, -4
  22:main.c        ****     CyDelay(1);
ARM GAS  C:\Users\NICOLA~1\AppData\Local\Temp\ccfEzMVY.s 			page 2


  36              		.loc 1 22 0
  37 0002 0120     		movs	r0, #1
  38 0004 FFF7FEFF 		bl	CyDelay
  39              	.LVL0:
  23:main.c        ****     switch(SWI_Read()){
  40              		.loc 1 23 0
  41 0008 FFF7FEFF 		bl	SWI_Read
  42              	.LVL1:
  43 000c 0528     		cmp	r0, #5
  44 000e 12D0     		beq	.L3
  45 0010 0628     		cmp	r0, #6
  46 0012 02D0     		beq	.L4
  47 0014 0328     		cmp	r0, #3
  48 0016 26D1     		bne	.L2
  49 0018 1BE0     		b	.L5
  50              	.L4:
  24:main.c        ****     case 0b00000110:
  25:main.c        ****         LCD_Position(1,14);
  51              		.loc 1 25 0
  52 001a 0E21     		movs	r1, #14
  53 001c 0120     		movs	r0, #1
  54 001e FFF7FEFF 		bl	LCD_Position
  55              	.LVL2:
  26:main.c        ****         LCD_PutChar(LCD_CUSTOM_0); // Se ponen los grados
  56              		.loc 1 26 0
  57 0022 0020     		movs	r0, #0
  58 0024 FFF7FEFF 		bl	LCD_PutChar
  59              	.LVL3:
  27:main.c        ****         LCD_PrintString("C");
  60              		.loc 1 27 0
  61 0028 1048     		ldr	r0, .L7
  62 002a FFF7FEFF 		bl	LCD_PrintString
  63              	.LVL4:
  28:main.c        ****         de=0;//Actualiza Conversion 
  64              		.loc 1 28 0
  65 002e 0022     		movs	r2, #0
  66 0030 0F4B     		ldr	r3, .L7+4
  67 0032 1A70     		strb	r2, [r3]
  29:main.c        ****         break;
  68              		.loc 1 29 0
  69 0034 17E0     		b	.L2
  70              	.L3:
  30:main.c        ****     case 0b00000101:
  31:main.c        ****         LCD_Position(1,14);
  71              		.loc 1 31 0
  72 0036 0E21     		movs	r1, #14
  73 0038 0120     		movs	r0, #1
  74 003a FFF7FEFF 		bl	LCD_Position
  75              	.LVL5:
  32:main.c        ****         LCD_PutChar(LCD_CUSTOM_0); // Se ponen los grados
  76              		.loc 1 32 0
  77 003e 0020     		movs	r0, #0
  78 0040 FFF7FEFF 		bl	LCD_PutChar
  79              	.LVL6:
  33:main.c        ****         LCD_PrintString("F");
  80              		.loc 1 33 0
  81 0044 0B48     		ldr	r0, .L7+8
ARM GAS  C:\Users\NICOLA~1\AppData\Local\Temp\ccfEzMVY.s 			page 3


  82 0046 FFF7FEFF 		bl	LCD_PrintString
  83              	.LVL7:
  34:main.c        ****         de=1;//Actualiza Conversion 
  84              		.loc 1 34 0
  85 004a 0122     		movs	r2, #1
  86 004c 084B     		ldr	r3, .L7+4
  87 004e 1A70     		strb	r2, [r3]
  35:main.c        ****         break;
  88              		.loc 1 35 0
  89 0050 09E0     		b	.L2
  90              	.L5:
  36:main.c        ****     case 0b00000011:
  37:main.c        ****         LCD_Position(1,14);
  91              		.loc 1 37 0
  92 0052 0E21     		movs	r1, #14
  93 0054 0120     		movs	r0, #1
  94 0056 FFF7FEFF 		bl	LCD_Position
  95              	.LVL8:
  38:main.c        ****         LCD_PrintString(" K");
  96              		.loc 1 38 0
  97 005a 0748     		ldr	r0, .L7+12
  98 005c FFF7FEFF 		bl	LCD_PrintString
  99              	.LVL9:
  39:main.c        ****         de=2;//Actualiza Conversion 
 100              		.loc 1 39 0
 101 0060 0222     		movs	r2, #2
 102 0062 034B     		ldr	r3, .L7+4
 103 0064 1A70     		strb	r2, [r3]
 104              	.L2:
  40:main.c        ****         break;
  41:main.c        ****      default:
  42:main.c        ****         break;
  43:main.c        ****     }
  44:main.c        ****     SWI_ClearInterrupt();
 105              		.loc 1 44 0
 106 0066 FFF7FEFF 		bl	SWI_ClearInterrupt
 107              	.LVL10:
 108 006a 08BD     		pop	{r3, pc}
 109              	.L8:
 110              		.align	2
 111              	.L7:
 112 006c 00000000 		.word	.LC0
 113 0070 00000000 		.word	.LANCHOR0
 114 0074 04000000 		.word	.LC1
 115 0078 08000000 		.word	.LC2
 116              		.cfi_endproc
 117              	.LFE63:
 118              		.size	Inte, .-Inte
 119              		.section	.text.visualc,"ax",%progbits
 120              		.align	2
 121              		.global	visualc
 122              		.thumb
 123              		.thumb_func
 124              		.type	visualc, %function
 125              	visualc:
 126              	.LFB64:
  45:main.c        **** }
ARM GAS  C:\Users\NICOLA~1\AppData\Local\Temp\ccfEzMVY.s 			page 4


  46:main.c        **** 
  47:main.c        **** void visualc(uint16 numero){
 127              		.loc 1 47 0
 128              		.cfi_startproc
 129              		@ args = 0, pretend = 0, frame = 0
 130              		@ frame_needed = 0, uses_anonymous_args = 0
 131              	.LVL11:
 132 0000 38B5     		push	{r3, r4, r5, lr}
 133              		.cfi_def_cfa_offset 16
 134              		.cfi_offset 3, -16
 135              		.cfi_offset 4, -12
 136              		.cfi_offset 5, -8
 137              		.cfi_offset 14, -4
  48:main.c        ****         uint16 unidades,decenas;
  49:main.c        ****         unidades=numero/100;
 138              		.loc 1 49 0
 139 0002 194A     		ldr	r2, .L14
 140 0004 A2FB0032 		umull	r3, r2, r2, r0
 141 0008 5309     		lsrs	r3, r2, #5
 142 000a 9DB2     		uxth	r5, r3
 143              	.LVL12:
  50:main.c        ****         decenas=numero%100;
 144              		.loc 1 50 0
 145 000c 6424     		movs	r4, #100
 146 000e 04FB1303 		mls	r3, r4, r3, r0
 147 0012 9CB2     		uxth	r4, r3
 148              	.LVL13:
  51:main.c        ****      
  52:main.c        ****         LCD_Position(1,0);
 149              		.loc 1 52 0
 150 0014 0021     		movs	r1, #0
 151 0016 0120     		movs	r0, #1
 152              	.LVL14:
 153 0018 FFF7FEFF 		bl	LCD_Position
 154              	.LVL15:
  53:main.c        ****         LCD_PrintString("       ");
 155              		.loc 1 53 0
 156 001c 1348     		ldr	r0, .L14+4
 157 001e FFF7FEFF 		bl	LCD_PrintString
 158              	.LVL16:
  54:main.c        ****         if(unidades>=100){
 159              		.loc 1 54 0
 160 0022 632D     		cmp	r5, #99
 161 0024 04D9     		bls	.L10
  55:main.c        ****         LCD_Position(1,0);
 162              		.loc 1 55 0
 163 0026 0021     		movs	r1, #0
 164 0028 0120     		movs	r0, #1
 165 002a FFF7FEFF 		bl	LCD_Position
 166              	.LVL17:
 167 002e 0AE0     		b	.L11
 168              	.L10:
  56:main.c        ****         }else if(unidades>=10){
 169              		.loc 1 56 0
 170 0030 092D     		cmp	r5, #9
 171 0032 04D9     		bls	.L12
  57:main.c        ****         LCD_Position(1,1);
ARM GAS  C:\Users\NICOLA~1\AppData\Local\Temp\ccfEzMVY.s 			page 5


 172              		.loc 1 57 0
 173 0034 0121     		movs	r1, #1
 174 0036 0846     		mov	r0, r1
 175 0038 FFF7FEFF 		bl	LCD_Position
 176              	.LVL18:
 177 003c 03E0     		b	.L11
 178              	.L12:
  58:main.c        ****         }
  59:main.c        ****         else{
  60:main.c        ****         LCD_Position(1,2);
 179              		.loc 1 60 0
 180 003e 0221     		movs	r1, #2
 181 0040 0120     		movs	r0, #1
 182 0042 FFF7FEFF 		bl	LCD_Position
 183              	.LVL19:
 184              	.L11:
  61:main.c        ****         }
  62:main.c        ****         LCD_PrintDecUint16(unidades);
 185              		.loc 1 62 0
 186 0046 2846     		mov	r0, r5
 187 0048 FFF7FEFF 		bl	LCD_PrintU32Number
 188              	.LVL20:
  63:main.c        ****         LCD_PrintString(".");
 189              		.loc 1 63 0
 190 004c 0848     		ldr	r0, .L14+8
 191 004e FFF7FEFF 		bl	LCD_PrintString
 192              	.LVL21:
  64:main.c        ****         LCD_PrintDecUint16(decenas);
 193              		.loc 1 64 0
 194 0052 2046     		mov	r0, r4
 195 0054 FFF7FEFF 		bl	LCD_PrintU32Number
 196              	.LVL22:
  65:main.c        ****         LCD_Position(1,5);
 197              		.loc 1 65 0
 198 0058 0521     		movs	r1, #5
 199 005a 0120     		movs	r0, #1
 200 005c FFF7FEFF 		bl	LCD_Position
 201              	.LVL23:
  66:main.c        ****         LCD_PrintString(" ");
 202              		.loc 1 66 0
 203 0060 0448     		ldr	r0, .L14+12
 204 0062 FFF7FEFF 		bl	LCD_PrintString
 205              	.LVL24:
 206 0066 38BD     		pop	{r3, r4, r5, pc}
 207              	.LVL25:
 208              	.L15:
 209              		.align	2
 210              	.L14:
 211 0068 1F85EB51 		.word	1374389535
 212 006c 0C000000 		.word	.LC3
 213 0070 14000000 		.word	.LC4
 214 0074 18000000 		.word	.LC5
 215              		.cfi_endproc
 216              	.LFE64:
 217              		.size	visualc, .-visualc
 218              		.section	.text.main,"ax",%progbits
 219              		.align	2
ARM GAS  C:\Users\NICOLA~1\AppData\Local\Temp\ccfEzMVY.s 			page 6


 220              		.global	main
 221              		.thumb
 222              		.thumb_func
 223              		.type	main, %function
 224              	main:
 225              	.LFB65:
  67:main.c        ****         
  68:main.c        **** }
  69:main.c        **** 
  70:main.c        **** int main(void)
  71:main.c        **** {
 226              		.loc 1 71 0
 227              		.cfi_startproc
 228              		@ Volatile: function does not return.
 229              		@ args = 0, pretend = 0, frame = 0
 230              		@ frame_needed = 0, uses_anonymous_args = 0
 231 0000 08B5     		push	{r3, lr}
 232              		.cfi_def_cfa_offset 8
 233              		.cfi_offset 3, -8
 234              		.cfi_offset 14, -4
  72:main.c        ****     CyGlobalIntEnable; /* Enable global interrupts. */
 235              		.loc 1 72 0
 236              		.syntax unified
 237              	@ 72 "main.c" 1
 238 0002 62B6     		CPSIE   i
 239              	@ 0 "" 2
  73:main.c        ****     IRQ_SW_StartEx(Inte);
 240              		.loc 1 73 0
 241              		.thumb
 242              		.syntax unified
 243 0004 2948     		ldr	r0, .L22
 244 0006 FFF7FEFF 		bl	IRQ_SW_StartEx
 245              	.LVL26:
  74:main.c        ****     LCD_Start();//Carga caracteres personalizados
 246              		.loc 1 74 0
 247 000a FFF7FEFF 		bl	LCD_Start
 248              	.LVL27:
  75:main.c        ****     ADC_Start();//Se Carga ADC
 249              		.loc 1 75 0
 250 000e FFF7FEFF 		bl	ADC_Start
 251              	.LVL28:
  76:main.c        ****     LCD_Position(0,0);
 252              		.loc 1 76 0
 253 0012 0021     		movs	r1, #0
 254 0014 0846     		mov	r0, r1
 255 0016 FFF7FEFF 		bl	LCD_Position
 256              	.LVL29:
  77:main.c        ****     LCD_PrintString("Temperatura : ");
 257              		.loc 1 77 0
 258 001a 2548     		ldr	r0, .L22+4
 259 001c FFF7FEFF 		bl	LCD_PrintString
 260              	.LVL30:
  78:main.c        ****     LCD_Position(1,14);
 261              		.loc 1 78 0
 262 0020 0E21     		movs	r1, #14
 263 0022 0120     		movs	r0, #1
 264 0024 FFF7FEFF 		bl	LCD_Position
ARM GAS  C:\Users\NICOLA~1\AppData\Local\Temp\ccfEzMVY.s 			page 7


 265              	.LVL31:
  79:main.c        ****     LCD_PutChar(LCD_CUSTOM_0); // Se ponen los grados
 266              		.loc 1 79 0
 267 0028 0020     		movs	r0, #0
 268 002a FFF7FEFF 		bl	LCD_PutChar
 269              	.LVL32:
  80:main.c        ****     LCD_PrintString("C"); 
 270              		.loc 1 80 0
 271 002e 2148     		ldr	r0, .L22+8
 272 0030 FFF7FEFF 		bl	LCD_PrintString
 273              	.LVL33:
 274              	.L20:
  81:main.c        ****     for(;;)
  82:main.c        ****     {   
  83:main.c        ****         
  84:main.c        ****         ADC_StartConvert();
 275              		.loc 1 84 0
 276 0034 FFF7FEFF 		bl	ADC_StartConvert
 277              	.LVL34:
  85:main.c        ****         ADC_IsEndConversion(ADC_WAIT_FOR_RESULT);
 278              		.loc 1 85 0
 279 0038 0020     		movs	r0, #0
 280 003a FFF7FEFF 		bl	ADC_IsEndConversion
 281              	.LVL35:
  86:main.c        ****         temp=ADC_GetResult16();
 282              		.loc 1 86 0
 283 003e FFF7FEFF 		bl	ADC_GetResult16
 284              	.LVL36:
 285 0042 C0B2     		uxtb	r0, r0
 286 0044 1C4B     		ldr	r3, .L22+12
 287 0046 5870     		strb	r0, [r3, #1]
  87:main.c        ****         //temp=ADC_CountsTo_mVolts(temp);
  88:main.c        ****         if(de==0){
 288              		.loc 1 88 0
 289 0048 1B78     		ldrb	r3, [r3]	@ zero_extendqisi2
 290 004a 13F0FF0F 		tst	r3, #255
 291 004e 0AD1     		bne	.L17
  89:main.c        ****             //Condicion para Grados Centigrados
  90:main.c        ****             u=(uint16)(temp*39+39);
 292              		.loc 1 90 0
 293 0050 0130     		adds	r0, r0, #1
 294 0052 00EB8003 		add	r3, r0, r0, lsl #2
 295 0056 C0EBC300 		rsb	r0, r0, r3, lsl #3
 296 005a 80B2     		uxth	r0, r0
 297 005c 174B     		ldr	r3, .L22+16
 298 005e 1880     		strh	r0, [r3]	@ movhi
  91:main.c        ****             visualc(u);     
 299              		.loc 1 91 0
 300 0060 FFF7FEFF 		bl	visualc
 301              	.LVL37:
 302 0064 1DE0     		b	.L18
 303              	.L17:
  92:main.c        ****         }else if(de==1){
 304              		.loc 1 92 0
 305 0066 144B     		ldr	r3, .L22+12
 306 0068 1B78     		ldrb	r3, [r3]	@ zero_extendqisi2
 307 006a DBB2     		uxtb	r3, r3
ARM GAS  C:\Users\NICOLA~1\AppData\Local\Temp\ccfEzMVY.s 			page 8


 308 006c 012B     		cmp	r3, #1
 309 006e 0CD1     		bne	.L19
  93:main.c        ****             //Condicion para Grados Farenhi
  94:main.c        ****             //temp=ADC_GetResult16();
  95:main.c        ****             //temp=ADC_CountsTo_mVolts(temp);
  96:main.c        ****             u=(uint16)(temp*70+3259);
 310              		.loc 1 96 0
 311 0070 00EB8000 		add	r0, r0, r0, lsl #2
 312 0074 C0EBC000 		rsb	r0, r0, r0, lsl #3
 313 0078 4300     		lsls	r3, r0, #1
 314 007a 03F6BB40 		addw	r0, r3, #3259
 315 007e 80B2     		uxth	r0, r0
 316 0080 0E4B     		ldr	r3, .L22+16
 317 0082 1880     		strh	r0, [r3]	@ movhi
  97:main.c        ****             visualc(u); 
 318              		.loc 1 97 0
 319 0084 FFF7FEFF 		bl	visualc
 320              	.LVL38:
 321 0088 0BE0     		b	.L18
 322              	.L19:
  98:main.c        ****         }
  99:main.c        ****         else{
 100:main.c        ****             //Condicion para Kelvin
 101:main.c        ****             u=(uint16)(temp*39+27354);
 323              		.loc 1 101 0
 324 008a 00EB8003 		add	r3, r0, r0, lsl #2
 325 008e C0EBC300 		rsb	r0, r0, r3, lsl #3
 326 0092 00F5D540 		add	r0, r0, #27264
 327 0096 5A30     		adds	r0, r0, #90
 328 0098 80B2     		uxth	r0, r0
 329 009a 084B     		ldr	r3, .L22+16
 330 009c 1880     		strh	r0, [r3]	@ movhi
 102:main.c        ****             visualc(u); 
 331              		.loc 1 102 0
 332 009e FFF7FEFF 		bl	visualc
 333              	.LVL39:
 334              	.L18:
 103:main.c        ****         }
 104:main.c        ****         
 105:main.c        ****         
 106:main.c        ****         CyDelay(500);//Tiempo de Refresco
 335              		.loc 1 106 0
 336 00a2 4FF4FA70 		mov	r0, #500
 337 00a6 FFF7FEFF 		bl	CyDelay
 338              	.LVL40:
 107:main.c        ****     }
 339              		.loc 1 107 0
 340 00aa C3E7     		b	.L20
 341              	.L23:
 342              		.align	2
 343              	.L22:
 344 00ac 00000000 		.word	Inte
 345 00b0 1C000000 		.word	.LC6
 346 00b4 00000000 		.word	.LC0
 347 00b8 00000000 		.word	.LANCHOR0
 348 00bc 00000000 		.word	u
 349              		.cfi_endproc
ARM GAS  C:\Users\NICOLA~1\AppData\Local\Temp\ccfEzMVY.s 			page 9


 350              	.LFE65:
 351              		.size	main, .-main
 352              		.comm	k,2,2
 353              		.comm	f,2,2
 354              		.comm	u,2,2
 355              		.comm	d,2,2
 356              		.global	temp
 357              		.global	de
 358              		.section	.rodata.str1.4,"aMS",%progbits,1
 359              		.align	2
 360              	.LC0:
 361 0000 4300     		.ascii	"C\000"
 362 0002 0000     		.space	2
 363              	.LC1:
 364 0004 4600     		.ascii	"F\000"
 365 0006 0000     		.space	2
 366              	.LC2:
 367 0008 204B00   		.ascii	" K\000"
 368 000b 00       		.space	1
 369              	.LC3:
 370 000c 20202020 		.ascii	"       \000"
 370      20202000 
 371              	.LC4:
 372 0014 2E00     		.ascii	".\000"
 373 0016 0000     		.space	2
 374              	.LC5:
 375 0018 2000     		.ascii	" \000"
 376 001a 0000     		.space	2
 377              	.LC6:
 378 001c 54656D70 		.ascii	"Temperatura : \000"
 378      65726174 
 378      75726120 
 378      3A2000
 379              		.bss
 380              		.set	.LANCHOR0,. + 0
 381              		.type	de, %object
 382              		.size	de, 1
 383              	de:
 384 0000 00       		.space	1
 385              		.type	temp, %object
 386              		.size	temp, 1
 387              	temp:
 388 0001 00       		.space	1
 389              		.text
 390              	.Letext0:
 391              		.file 2 "c:\\program files (x86)\\cypress\\psoc creator\\4.2\\psoc creator\\import\\gnu\\arm\\5.4.
 392              		.file 3 "c:\\program files (x86)\\cypress\\psoc creator\\4.2\\psoc creator\\import\\gnu\\arm\\5.4.
 393              		.file 4 "Generated_Source\\PSoC5/cytypes.h"
 394              		.file 5 "Generated_Source\\PSoC5/core_cm3.h"
 395              		.file 6 "Generated_Source\\PSoC5/CyLib.h"
 396              		.file 7 "Generated_Source\\PSoC5/SWI.h"
 397              		.file 8 "Generated_Source\\PSoC5/LCD.h"
 398              		.file 9 "Generated_Source\\PSoC5/IRQ_SW.h"
 399              		.file 10 "Generated_Source\\PSoC5/ADC.h"